; Function Attrs: nounwind uwtable
define dso_local range(i64 0, 4294967296) i64 @regclassin(ptr noundef captures(none) %0) #0 {
  %2 = alloca i64, align 8
  %3 = getelementptr inbounds nuw i8, ptr %0, i64 32
  %4 = load i64, ptr %3, align 8
  %5 = inttoptr i64 %4 to ptr
  %6 = getelementptr inbounds nuw i8, ptr %0, i64 8
  %7 = load ptr, ptr %6, align 8
  %8 = load i8, ptr %5, align 1
  %.not.i = icmp eq i8 %8, 45
  br i1 %.not.i, label %.tail.i, label %12

.tail.i:                                          ; preds = %1
  %9 = getelementptr inbounds nuw i8, ptr %5, i64 1
  %10 = load i8, ptr %9, align 1
  %11 = icmp eq i8 %10, 0
  br i1 %11, label %43, label %parseDashOrOid.exit

12:                                               ; preds = %1
  %13 = add i8 %8, -48
  %or.cond.i.i = icmp ult i8 %13, 10
  br i1 %or.cond.i.i, label %14, label %parseDashOrOid.exit

14:                                               ; preds = %12
  %15 = tail call i64 @strspn(ptr noundef nonnull %5, ptr noundef nonnull @.str.39) #8
  %16 = tail call i64 @strlen(ptr noundef nonnull dereferenceable(1) %5) #8
  %17 = icmp eq i64 %15, %16
  br i1 %17, label %18, label %parseDashOrOid.exit

18:                                               ; preds = %14
  call void @llvm.lifetime.start.p0(i64 8, ptr nonnull %2) #9
  %19 = call zeroext i1 @DirectInputFunctionCallSafe(ptr noundef nonnull @oidin, ptr noundef nonnull %5, i32 noundef 0, i32 noundef -1, ptr noundef %7, ptr noundef nonnull %2) #9
  %20 = load i64, ptr %2, align 8
  call void @llvm.lifetime.end.p0(i64 8, ptr nonnull %2) #9
  %21 = and i64 %20, 4294967295
  br label %43

parseDashOrOid.exit:                              ; preds = %14, %12, %.tail.i
  %22 = load i32, ptr @Mode, align 4
  %23 = icmp eq i32 %22, 0
  br i1 %23, label %24, label %27

24:                                               ; preds = %parseDashOrOid.exit
  %25 = tail call zeroext i1 @errstart_cold(i32 noundef 21, ptr noundef null) #10
  tail call void @llvm.assume(i1 %25)
  %26 = tail call i32 (ptr, ...) @errmsg_internal(ptr noundef nonnull @.str.25) #9
  tail call void @errfinish(ptr noundef nonnull @.str.1, i32 noundef 897, ptr noundef nonnull @__func__.regclassin) #9
  unreachable

27:                                               ; preds = %parseDashOrOid.exit
  %28 = tail call ptr @stringToQualifiedNameList(ptr noundef nonnull %5, ptr noundef %7)
  %29 = icmp eq ptr %28, null
  br i1 %29, label %30, label %32

30:                                               ; preds = %27
  %31 = getelementptr inbounds nuw i8, ptr %0, i64 28
  store i8 1, ptr %31, align 4
  br label %43

32:                                               ; preds = %27
  %33 = tail call ptr @makeRangeVarFromNameList(ptr noundef nonnull %28) #9
  %34 = tail call i32 @RangeVarGetRelidExtended(ptr noundef %33, i32 noundef 0, i32 noundef 1, ptr noundef null, ptr noundef null) #9
  %.not = icmp eq i32 %34, 0
  br i1 %.not, label %35, label %41

35:                                               ; preds = %32
  %36 = tail call zeroext i1 @errsave_start(ptr noundef %7, ptr noundef null) #9
  br i1 %36, label %37, label %43

37:                                               ; preds = %35
  %38 = tail call i32 @errcode(i32 noundef 16908420) #9
  %39 = tail call ptr @NameListToString(ptr noundef nonnull %28) #9
  %40 = tail call i32 (ptr, ...) @errmsg(ptr noundef nonnull @.str.26, ptr noundef %39) #9
  tail call void @errsave_finish(ptr noundef %7, ptr noundef nonnull @.str.1, i32 noundef 914, ptr noundef nonnull @__func__.regclassin) #9
  br label %43

41:                                               ; preds = %32
  %42 = zext i32 %34 to i64
  br label %43

43:                                               ; preds = %.tail.i, %18, %35, %37, %41, %30
  %.0 = phi i64 [ 0, %30 ], [ %42, %41 ], [ 0, %37 ], [ 0, %35 ], [ 0, %.tail.i ], [ %21, %18 ]
  ret i64 %.0
}